target datalayout = "e-m:e-p270:32:32-p271:32:32-p272:64:64-i64:64-i128:128-f80:128-n8:16:32:64-S128"
target triple = "x86_64-unknown-linux-gnu"

%"struct.node::AssertionInfo" = type { ptr, ptr, ptr }
%"struct.std::atomic.361" = type { %"struct.std::__atomic_base.362" }
%"struct.std::__atomic_base.362" = type { ptr }
%struct.__sigset_t = type { [16 x i64] }
%struct.sigaction = type { %union.anon.363, %struct.__sigset_t, i32, ptr }
%union.anon.363 = type { ptr }

@_ZN4nodeL23previous_sigsegv_actionE = internal global %"struct.std::atomic.361" zeroinitializer, align 8
@_ZZN4node21RegisterSignalHandlerEiPFviP9siginfo_tPvEbE4args = internal constant %"struct.node::AssertionInfo" { ptr @.str.31, ptr @.str.32, ptr @.str.33 }, align 8
@_ZZN4node21RegisterSignalHandlerEiPFviP9siginfo_tPvEbE4args_0 = internal constant %"struct.node::AssertionInfo" { ptr @.str.34, ptr @.str.35, ptr @.str.33 }, align 8
@_ZZN4node21RegisterSignalHandlerEiPFviP9siginfo_tPvEbE4args_1 = internal constant %"struct.node::AssertionInfo" { ptr @.str.36, ptr @.str.37, ptr @.str.33 }, align 8
@_ZZN4node21RegisterSignalHandlerEiPFviP9siginfo_tPvEbE4args_2 = internal constant %"struct.node::AssertionInfo" { ptr @.str.38, ptr @.str.39, ptr @.str.33 }, align 8

; Function Attrs: mustprogress nounwind uwtable
define linkonce_odr dso_local noundef i32 @_ZStanSt12memory_orderSt23__memory_order_modifier(i32 noundef %__m, i32 noundef %__mod) #5 comdat {
entry:
  %__m.addr = alloca i32, align 4
  %__mod.addr = alloca i32, align 4
  store i32 %__m, ptr %__m.addr, align 4
  store i32 %__mod, ptr %__mod.addr, align 4
  %0 = load i32, ptr %__m.addr, align 4
  %1 = load i32, ptr %__mod.addr, align 4
  %and = and i32 %0, %1
  ret i32 %and
}

; Function Attrs: mustprogress nounwind uwtable
define linkonce_odr dso_local noundef zeroext i1 @_ZNKSt13__atomic_baseIPFviP9siginfo_tPvEE12is_lock_freeEv(ptr noundef nonnull align 8 dereferenceable(8) %this) #5 comdat align 2 {
entry:
  %this.addr = alloca ptr, align 8
  store ptr %this, ptr %this.addr, align 8
  %call = call noundef zeroext i1 @__atomic_is_lock_free(i64 noundef 8, ptr noundef inttoptr (i64 -8 to ptr))
  ret i1 %call
}

; Function Attrs: mustprogress nounwind uwtable
define linkonce_odr dso_local void @_ZNSt6atomicIPFviP9siginfo_tPvEE5storeES4_St12memory_order(ptr noundef nonnull align 8 dereferenceable(8) %this, ptr noundef %__p, i32 noundef %__m) #5 comdat align 2 {
entry:
  %this.addr.i = alloca ptr, align 8
  %__p.addr.i = alloca ptr, align 8
  %__m.addr.i = alloca i32, align 4
  %__b.i = alloca i32, align 4
  %.atomictmp.i = alloca ptr, align 8
  %this.addr = alloca ptr, align 8
  %__p.addr = alloca ptr, align 8
  %__m.addr = alloca i32, align 4
  store ptr %this, ptr %this.addr, align 8
  store ptr %__p, ptr %__p.addr, align 8
  store i32 %__m, ptr %__m.addr, align 4
  %this1 = load ptr, ptr %this.addr, align 8
  %_M_b = getelementptr inbounds %"struct.std::atomic.361", ptr %this1, i32 0, i32 0
  %0 = load ptr, ptr %__p.addr, align 8
  %1 = load i32, ptr %__m.addr, align 4
  store ptr %_M_b, ptr %this.addr.i, align 8
  store ptr %0, ptr %__p.addr.i, align 8
  store i32 %1, ptr %__m.addr.i, align 4
  %this1.i = load ptr, ptr %this.addr.i, align 8
  %2 = load i32, ptr %__m.addr.i, align 4
  %call.i = call noundef i32 @_ZStanSt12memory_orderSt23__memory_order_modifier(i32 noundef %2, i32 noundef 65535)
  store i32 %call.i, ptr %__b.i, align 4
  %3 = load i32, ptr %__m.addr.i, align 4
  %4 = load ptr, ptr %__p.addr.i, align 8
  store ptr %4, ptr %.atomictmp.i, align 8
  switch i32 %3, label %monotonic.i [
    i32 3, label %release.i
    i32 5, label %seqcst.i
  ]

monotonic.i:                                      ; preds = %entry
  %5 = load i64, ptr %.atomictmp.i, align 8
  store atomic i64 %5, ptr %this1.i monotonic, align 8
  br label %_ZNSt13__atomic_baseIPFviP9siginfo_tPvEE5storeES4_St12memory_order.exit

release.i:                                        ; preds = %entry
  %6 = load i64, ptr %.atomictmp.i, align 8
  store atomic i64 %6, ptr %this1.i release, align 8
  br label %_ZNSt13__atomic_baseIPFviP9siginfo_tPvEE5storeES4_St12memory_order.exit

seqcst.i:                                         ; preds = %entry
  %7 = load i64, ptr %.atomictmp.i, align 8
  store atomic i64 %7, ptr %this1.i seq_cst, align 8
  br label %_ZNSt13__atomic_baseIPFviP9siginfo_tPvEE5storeES4_St12memory_order.exit

_ZNSt13__atomic_baseIPFviP9siginfo_tPvEE5storeES4_St12memory_order.exit: ; preds = %seqcst.i, %release.i, %monotonic.i
  ret void
}

; Function Attrs: mustprogress nounwind uwtable
define linkonce_odr dso_local noundef zeroext i1 @_ZNKSt6atomicIPFviP9siginfo_tPvEE12is_lock_freeEv(ptr noundef nonnull align 8 dereferenceable(8) %this) #5 comdat align 2 {
entry:
  %this.addr = alloca ptr, align 8
  store ptr %this, ptr %this.addr, align 8
  %this1 = load ptr, ptr %this.addr, align 8
  %_M_b = getelementptr inbounds %"struct.std::atomic.361", ptr %this1, i32 0, i32 0
  %call = call noundef zeroext i1 @_ZNKSt13__atomic_baseIPFviP9siginfo_tPvEE12is_lock_freeEv(ptr noundef nonnull align 8 dereferenceable(8) %_M_b) #3
  ret i1 %call
}

; Function Attrs: mustprogress nounwind uwtable
define dso_local void @_ZN4node21RegisterSignalHandlerEiPFviP9siginfo_tPvEb(i32 noundef %signal, ptr noundef %handler, i1 noundef zeroext %reset_handler) #5 {
entry:
  %signal.addr = alloca i32, align 4
  %handler.addr = alloca ptr, align 8
  %reset_handler.addr = alloca i8, align 1
  %sa = alloca %struct.sigaction, align 8
  store i32 %signal, ptr %signal.addr, align 4
  store ptr %handler, ptr %handler.addr, align 8
  %frombool = zext i1 %reset_handler to i8
  store i8 %frombool, ptr %reset_handler.addr, align 1
  br label %do.body

do.body:                                          ; preds = %entry
  %0 = load ptr, ptr %handler.addr, align 8
  %cmp = icmp ne ptr %0, null
  %lnot = xor i1 %cmp, true
  %lnot1 = xor i1 %lnot, true
  %lnot2 = xor i1 %lnot1, true
  br i1 %lnot2, label %if.then, label %if.end

if.then:                                          ; preds = %do.body
  br label %do.body3

do.body3:                                         ; preds = %if.then
  call void @_ZN4node6AssertERKNS_13AssertionInfoE(ptr noundef nonnull align 8 dereferenceable(24) @_ZZN4node21RegisterSignalHandlerEiPFviP9siginfo_tPvEbE4args)
  call void @abort() #18
  unreachable

do.end:                                           ; No predecessors!
  br label %if.end

if.end:                                           ; preds = %do.end, %do.body
  br label %do.end4

do.end4:                                          ; preds = %if.end
  %1 = load i32, ptr %signal.addr, align 4
  %cmp5 = icmp eq i32 %1, 11
  br i1 %cmp5, label %if.then6, label %if.end26

if.then6:                                         ; preds = %do.end4
  br label %do.body7

do.body7:                                         ; preds = %if.then6
  %call = call noundef zeroext i1 @_ZNKSt6atomicIPFviP9siginfo_tPvEE12is_lock_freeEv(ptr noundef nonnull align 8 dereferenceable(8) @_ZN4nodeL23previous_sigsegv_actionE) #3
  %lnot8 = xor i1 %call, true
  %lnot9 = xor i1 %lnot8, true
  %lnot10 = xor i1 %lnot9, true
  br i1 %lnot10, label %if.then11, label %if.end14

if.then11:                                        ; preds = %do.body7
  br label %do.body12

do.body12:                                        ; preds = %if.then11
  call void @_ZN4node6AssertERKNS_13AssertionInfoE(ptr noundef nonnull align 8 dereferenceable(24) @_ZZN4node21RegisterSignalHandlerEiPFviP9siginfo_tPvEbE4args_0)
  call void @abort() #18
  unreachable

do.end13:                                         ; No predecessors!
  br label %if.end14

if.end14:                                         ; preds = %do.end13, %do.body7
  br label %do.end15

do.end15:                                         ; preds = %if.end14
  br label %do.body16

do.body16:                                        ; preds = %do.end15
  %2 = load i8, ptr %reset_handler.addr, align 1
  %tobool = trunc i8 %2 to i1
  %lnot17 = xor i1 %tobool, true
  %lnot18 = xor i1 %lnot17, true
  %lnot19 = xor i1 %lnot18, true
  %lnot20 = xor i1 %lnot19, true
  br i1 %lnot20, label %if.then21, label %if.end24

if.then21:                                        ; preds = %do.body16
  br label %do.body22

do.body22:                                        ; preds = %if.then21
  call void @_ZN4node6AssertERKNS_13AssertionInfoE(ptr noundef nonnull align 8 dereferenceable(24) @_ZZN4node21RegisterSignalHandlerEiPFviP9siginfo_tPvEbE4args_1)
  call void @abort() #18
  unreachable

do.end23:                                         ; No predecessors!
  br label %if.end24

if.end24:                                         ; preds = %do.end23, %do.body16
  br label %do.end25

do.end25:                                         ; preds = %if.end24
  %3 = load ptr, ptr %handler.addr, align 8
  call void @_ZNSt6atomicIPFviP9siginfo_tPvEE5storeES4_St12memory_order(ptr noundef nonnull align 8 dereferenceable(8) @_ZN4nodeL23previous_sigsegv_actionE, ptr noundef %3, i32 noundef 5) #3
  br label %do.end39

if.end26:                                         ; preds = %do.end4
  call void @llvm.memset.p0.i64(ptr align 8 %sa, i8 0, i64 152, i1 false)
  %4 = load ptr, ptr %handler.addr, align 8
  %__sigaction_handler = getelementptr inbounds %struct.sigaction, ptr %sa, i32 0, i32 0
  store ptr %4, ptr %__sigaction_handler, align 8
  %5 = load i8, ptr %reset_handler.addr, align 1
  %tobool27 = trunc i8 %5 to i1
  %cond = select i1 %tobool27, i32 -2147483648, i32 0
  %sa_flags = getelementptr inbounds %struct.sigaction, ptr %sa, i32 0, i32 2
  store i32 %cond, ptr %sa_flags, align 8
  %sa_mask = getelementptr inbounds %struct.sigaction, ptr %sa, i32 0, i32 1
  %call28 = call i32 @sigfillset(ptr noundef %sa_mask) #3
  br label %do.body29

do.body29:                                        ; preds = %if.end26
  %6 = load i32, ptr %signal.addr, align 4
  %call30 = call i32 @sigaction(i32 noundef %6, ptr noundef %sa, ptr noundef null) #3
  %cmp31 = icmp eq i32 %call30, 0
  %lnot32 = xor i1 %cmp31, true
  %lnot33 = xor i1 %lnot32, true
  %lnot34 = xor i1 %lnot33, true
  br i1 %lnot34, label %if.then35, label %if.end38

if.then35:                                        ; preds = %do.body29
  br label %do.body36

do.body36:                                        ; preds = %if.then35
  call void @_ZN4node6AssertERKNS_13AssertionInfoE(ptr noundef nonnull align 8 dereferenceable(24) @_ZZN4node21RegisterSignalHandlerEiPFviP9siginfo_tPvEbE4args_2)
  call void @abort() #18
  unreachable

do.end37:                                         ; No predecessors!
  br label %if.end38

if.end38:                                         ; preds = %do.end37, %do.body29
  br label %do.end39

do.end39:                                         ; preds = %if.end38, %do.end25
  ret void
}