; Function Attrs: mustprogress nounwind uwtable
define dso_local void @_ZN4node21RegisterSignalHandlerEiPFviP9siginfo_tPvEb(i32 noundef %signal, ptr noundef %handler, i1 noundef zeroext %reset_handler) local_unnamed_addr #4 {
entry:
  %sa = alloca %struct.sigaction, align 8
  %cmp.not = icmp eq ptr %handler, null
  br i1 %cmp.not, label %do.body3, label %do.end4

do.body3:                                         ; preds = %entry
  tail call void @_ZN4node6AssertERKNS_13AssertionInfoE(ptr noundef nonnull align 8 dereferenceable(24) @_ZZN4node21RegisterSignalHandlerEiPFviP9siginfo_tPvEbE4args) #23
  tail call void @abort() #26
  unreachable

do.end4:                                          ; preds = %entry
  %cmp5 = icmp eq i32 %signal, 11
  br i1 %cmp5, label %do.body7, label %if.end26

do.body7:                                         ; preds = %do.end4
  %call.i.i = tail call noundef zeroext i1 @__atomic_is_lock_free(i64 noundef 8, ptr noundef nonnull inttoptr (i64 -8 to ptr)) #23
  br i1 %call.i.i, label %do.body16, label %do.body12

do.body12:                                        ; preds = %do.body7
  tail call void @_ZN4node6AssertERKNS_13AssertionInfoE(ptr noundef nonnull align 8 dereferenceable(24) @_ZZN4node21RegisterSignalHandlerEiPFviP9siginfo_tPvEbE4args_0) #23
  tail call void @abort() #26
  unreachable

do.body16:                                        ; preds = %do.body7
  br i1 %reset_handler, label %do.body22, label %do.end25

do.body22:                                        ; preds = %do.body16
  tail call void @_ZN4node6AssertERKNS_13AssertionInfoE(ptr noundef nonnull align 8 dereferenceable(24) @_ZZN4node21RegisterSignalHandlerEiPFviP9siginfo_tPvEbE4args_1) #23
  tail call void @abort() #26
  unreachable

do.end25:                                         ; preds = %do.body16
  %0 = ptrtoint ptr %handler to i64
  store atomic i64 %0, ptr @_ZN4nodeL23previous_sigsegv_actionE.0 seq_cst, align 8
  br label %do.end39

if.end26:                                         ; preds = %do.end4
  %1 = getelementptr inbounds i8, ptr %sa, i64 8
  call void @llvm.memset.p0.i64(ptr noundef nonnull align 8 dereferenceable(152) %1, i8 0, i64 144, i1 false)
  store ptr %handler, ptr %sa, align 8
  %cond = select i1 %reset_handler, i32 -2147483648, i32 0
  %sa_flags = getelementptr inbounds i8, ptr %sa, i64 136
  store i32 %cond, ptr %sa_flags, align 8
  %sa_mask = getelementptr inbounds i8, ptr %sa, i64 8
  %call28 = call i32 @sigfillset(ptr noundef nonnull %sa_mask) #23
  %call30 = call i32 @sigaction(i32 noundef %signal, ptr noundef nonnull %sa, ptr noundef null) #23
  %cmp31.not = icmp eq i32 %call30, 0
  br i1 %cmp31.not, label %do.end39, label %do.body36

do.body36:                                        ; preds = %if.end26
  call void @_ZN4node6AssertERKNS_13AssertionInfoE(ptr noundef nonnull align 8 dereferenceable(24) @_ZZN4node21RegisterSignalHandlerEiPFviP9siginfo_tPvEbE4args_2) #23
  call void @abort() #26
  unreachable

do.end39:                                         ; preds = %if.end26, %do.end25
  ret void
}